target datalayout = "e-m:e-p270:32:32-p271:32:32-p272:64:64-i64:64-i128:128-f80:128-n8:16:32:64-S128"
target triple = "x86_64-pc-linux-gnu"

%"class.llvm::SHA256" = type { %struct.anon }
%struct.anon = type { %union.anon, [8 x i32], i32, i8 }
%union.anon = type { [16 x i32] }

; Function Attrs: mustprogress nounwind uwtable
define dso_local void @_ZN4llvm6SHA25612addUncountedEh(ptr noundef nonnull align 4 dereferenceable(104) %0, i8 noundef zeroext %1) #0 align 2 {
  %3 = alloca ptr, align 8
  %4 = alloca i8, align 1
  store ptr %0, ptr %3, align 8
  store i8 %1, ptr %4, align 1
  %5 = load ptr, ptr %3, align 8
  %6 = load i8, ptr %4, align 1
  %7 = getelementptr inbounds nuw %"class.llvm::SHA256", ptr %5, i32 0, i32 0
  %8 = getelementptr inbounds nuw %struct.anon, ptr %7, i32 0, i32 0
  %9 = getelementptr inbounds nuw %"class.llvm::SHA256", ptr %5, i32 0, i32 0
  %10 = getelementptr inbounds nuw %struct.anon, ptr %9, i32 0, i32 3
  %11 = load i8, ptr %10, align 4
  %12 = zext i8 %11 to i32
  %13 = xor i32 %12, 3
  %14 = sext i32 %13 to i64
  %15 = getelementptr inbounds [64 x i8], ptr %8, i64 0, i64 %14
  store i8 %6, ptr %15, align 1
  %16 = getelementptr inbounds nuw %"class.llvm::SHA256", ptr %5, i32 0, i32 0
  %17 = getelementptr inbounds nuw %struct.anon, ptr %16, i32 0, i32 3
  %18 = load i8, ptr %17, align 4
  %19 = add i8 %18, 1
  store i8 %19, ptr %17, align 4
  %20 = getelementptr inbounds nuw %"class.llvm::SHA256", ptr %5, i32 0, i32 0
  %21 = getelementptr inbounds nuw %struct.anon, ptr %20, i32 0, i32 3
  %22 = load i8, ptr %21, align 4
  %23 = zext i8 %22 to i32
  %24 = icmp eq i32 %23, 64
  br i1 %24, label %25, label %28

25:                                               ; preds = %2
  call void @_ZN4llvm6SHA2569hashBlockEv(ptr noundef nonnull align 4 dereferenceable(104) %5)
  %26 = getelementptr inbounds nuw %"class.llvm::SHA256", ptr %5, i32 0, i32 0
  %27 = getelementptr inbounds nuw %struct.anon, ptr %26, i32 0, i32 3
  store i8 0, ptr %27, align 4
  br label %28

28:                                               ; preds = %25, %2
  ret void
}

; Function Attrs: mustprogress nounwind uwtable
define dso_local void @_ZN4llvm6SHA2563padEv(ptr noundef nonnull align 4 dereferenceable(104) %0) #0 align 2 {
  %2 = alloca ptr, align 8
  %3 = alloca i64, align 8
  store ptr %0, ptr %2, align 8
  %4 = load ptr, ptr %2, align 8
  call void @_ZN4llvm6SHA25612addUncountedEh(ptr noundef nonnull align 4 dereferenceable(104) %4, i8 noundef zeroext -128)
  br label %5

5:                                                ; preds = %11, %1
  %6 = getelementptr inbounds nuw %"class.llvm::SHA256", ptr %4, i32 0, i32 0
  %7 = getelementptr inbounds nuw %struct.anon, ptr %6, i32 0, i32 3
  %8 = load i8, ptr %7, align 4
  %9 = zext i8 %8 to i32
  %10 = icmp ne i32 %9, 56
  br i1 %10, label %11, label %12

11:                                               ; preds = %5
  call void @_ZN4llvm6SHA25612addUncountedEh(ptr noundef nonnull align 4 dereferenceable(104) %4, i8 noundef zeroext 0)
  br label %5, !llvm.loop !8

12:                                               ; preds = %5
  %13 = getelementptr inbounds nuw %"class.llvm::SHA256", ptr %4, i32 0, i32 0
  %14 = getelementptr inbounds nuw %struct.anon, ptr %13, i32 0, i32 2
  %15 = load i32, ptr %14, align 4
  %16 = shl i32 %15, 3
  %17 = zext i32 %16 to i64
  store i64 %17, ptr %3, align 8
  %18 = load i64, ptr %3, align 8
  %19 = lshr i64 %18, 56
  %20 = trunc i64 %19 to i8
  call void @_ZN4llvm6SHA25612addUncountedEh(ptr noundef nonnull align 4 dereferenceable(104) %4, i8 noundef zeroext %20)
  %21 = load i64, ptr %3, align 8
  %22 = lshr i64 %21, 48
  %23 = trunc i64 %22 to i8
  call void @_ZN4llvm6SHA25612addUncountedEh(ptr noundef nonnull align 4 dereferenceable(104) %4, i8 noundef zeroext %23)
  %24 = load i64, ptr %3, align 8
  %25 = lshr i64 %24, 40
  %26 = trunc i64 %25 to i8
  call void @_ZN4llvm6SHA25612addUncountedEh(ptr noundef nonnull align 4 dereferenceable(104) %4, i8 noundef zeroext %26)
  %27 = load i64, ptr %3, align 8
  %28 = lshr i64 %27, 32
  %29 = trunc i64 %28 to i8
  call void @_ZN4llvm6SHA25612addUncountedEh(ptr noundef nonnull align 4 dereferenceable(104) %4, i8 noundef zeroext %29)
  %30 = load i64, ptr %3, align 8
  %31 = lshr i64 %30, 24
  %32 = trunc i64 %31 to i8
  call void @_ZN4llvm6SHA25612addUncountedEh(ptr noundef nonnull align 4 dereferenceable(104) %4, i8 noundef zeroext %32)
  %33 = load i64, ptr %3, align 8
  %34 = lshr i64 %33, 16
  %35 = trunc i64 %34 to i8
  call void @_ZN4llvm6SHA25612addUncountedEh(ptr noundef nonnull align 4 dereferenceable(104) %4, i8 noundef zeroext %35)
  %36 = load i64, ptr %3, align 8
  %37 = lshr i64 %36, 8
  %38 = trunc i64 %37 to i8
  call void @_ZN4llvm6SHA25612addUncountedEh(ptr noundef nonnull align 4 dereferenceable(104) %4, i8 noundef zeroext %38)
  %39 = load i64, ptr %3, align 8
  %40 = trunc i64 %39 to i8
  call void @_ZN4llvm6SHA25612addUncountedEh(ptr noundef nonnull align 4 dereferenceable(104) %4, i8 noundef zeroext %40)
  ret void
}