; Function Attrs: mustprogress nofree norecurse nosync nounwind memory(argmem: readwrite) uwtable
define dso_local void @_ZN4llvm6SHA2563padEv(ptr nocapture noundef nonnull align 4 dereferenceable(104) %0) local_unnamed_addr #4 align 2 {
  %2 = getelementptr inbounds nuw i8, ptr %0, i64 100
  %3 = load i8, ptr %2, align 4
  %4 = xor i8 %3, 3
  %5 = zext i8 %4 to i64
  %6 = getelementptr inbounds [64 x i8], ptr %0, i64 0, i64 %5
  store i8 -128, ptr %6, align 1
  %7 = load i8, ptr %2, align 4
  %8 = add i8 %7, 1
  store i8 %8, ptr %2, align 4
  switch i8 %7, label %.lr.ph.preheader [
    i8 63, label %_ZN4llvm6SHA25612addUncountedEh.exit.thread
    i8 55, label %_ZN4llvm6SHA25612addUncountedEh.exit9
  ]

_ZN4llvm6SHA25612addUncountedEh.exit.thread:      ; preds = %1
  tail call void @_ZN4llvm6SHA2569hashBlockEv(ptr noundef nonnull align 4 dereferenceable(104) %0)
  store i8 0, ptr %2, align 4
  br label %.lr.ph.preheader

.lr.ph.preheader:                                 ; preds = %1, %_ZN4llvm6SHA25612addUncountedEh.exit.thread
  %.ph = phi i8 [ %8, %1 ], [ 0, %_ZN4llvm6SHA25612addUncountedEh.exit.thread ]
  br label %.lr.ph

.lr.ph:                                           ; preds = %.lr.ph.preheader, %_ZN4llvm6SHA25612addUncountedEh.exit8
  %9 = phi i8 [ %17, %_ZN4llvm6SHA25612addUncountedEh.exit8 ], [ %.ph, %.lr.ph.preheader ]
  %10 = xor i8 %9, 3
  %11 = zext i8 %10 to i64
  %12 = getelementptr inbounds [64 x i8], ptr %0, i64 0, i64 %11
  store i8 0, ptr %12, align 1
  %13 = load i8, ptr %2, align 4
  %14 = add i8 %13, 1
  store i8 %14, ptr %2, align 4
  %15 = icmp eq i8 %14, 64
  br i1 %15, label %16, label %_ZN4llvm6SHA25612addUncountedEh.exit8

16:                                               ; preds = %.lr.ph
  tail call void @_ZN4llvm6SHA2569hashBlockEv(ptr noundef nonnull align 4 dereferenceable(104) %0)
  store i8 0, ptr %2, align 4
  br label %_ZN4llvm6SHA25612addUncountedEh.exit8

_ZN4llvm6SHA25612addUncountedEh.exit8:            ; preds = %.lr.ph, %16
  %17 = phi i8 [ %14, %.lr.ph ], [ 0, %16 ]
  %.not = icmp eq i8 %17, 56
  br i1 %.not, label %_ZN4llvm6SHA25612addUncountedEh.exit9, label %.lr.ph, !llvm.loop !8

_ZN4llvm6SHA25612addUncountedEh.exit9:            ; preds = %_ZN4llvm6SHA25612addUncountedEh.exit8, %1
  %18 = getelementptr inbounds nuw i8, ptr %0, i64 96
  %19 = load i32, ptr %18, align 4
  %20 = shl i32 %19, 3
  %21 = getelementptr inbounds i8, ptr %0, i64 59
  store i8 0, ptr %21, align 1
  store i8 57, ptr %2, align 4
  %22 = getelementptr inbounds i8, ptr %0, i64 58
  store i8 0, ptr %22, align 2
  store i8 58, ptr %2, align 4
  %23 = getelementptr inbounds i8, ptr %0, i64 57
  store i8 0, ptr %23, align 1
  store i8 59, ptr %2, align 4
  %24 = getelementptr inbounds i8, ptr %0, i64 56
  store i8 0, ptr %24, align 4
  %25 = load i8, ptr %2, align 4
  %26 = add i8 %25, 1
  store i8 %26, ptr %2, align 4
  %27 = icmp eq i8 %26, 64
  br i1 %27, label %28, label %_ZN4llvm6SHA25612addUncountedEh.exit12

28:                                               ; preds = %_ZN4llvm6SHA25612addUncountedEh.exit9
  tail call void @_ZN4llvm6SHA2569hashBlockEv(ptr noundef nonnull align 4 dereferenceable(104) %0)
  store i8 0, ptr %2, align 4
  br label %_ZN4llvm6SHA25612addUncountedEh.exit12

_ZN4llvm6SHA25612addUncountedEh.exit12:           ; preds = %_ZN4llvm6SHA25612addUncountedEh.exit9, %28
  %29 = phi i8 [ %26, %_ZN4llvm6SHA25612addUncountedEh.exit9 ], [ 0, %28 ]
  %30 = lshr i32 %20, 24
  %31 = trunc nuw i32 %30 to i8
  %32 = xor i8 %29, 3
  %33 = zext i8 %32 to i64
  %34 = getelementptr inbounds [64 x i8], ptr %0, i64 0, i64 %33
  store i8 %31, ptr %34, align 1
  %35 = load i8, ptr %2, align 4
  %36 = add i8 %35, 1
  store i8 %36, ptr %2, align 4
  %37 = icmp eq i8 %36, 64
  br i1 %37, label %38, label %_ZN4llvm6SHA25612addUncountedEh.exit13

38:                                               ; preds = %_ZN4llvm6SHA25612addUncountedEh.exit12
  tail call void @_ZN4llvm6SHA2569hashBlockEv(ptr noundef nonnull align 4 dereferenceable(104) %0)
  store i8 0, ptr %2, align 4
  br label %_ZN4llvm6SHA25612addUncountedEh.exit13

_ZN4llvm6SHA25612addUncountedEh.exit13:           ; preds = %_ZN4llvm6SHA25612addUncountedEh.exit12, %38
  %39 = phi i8 [ %36, %_ZN4llvm6SHA25612addUncountedEh.exit12 ], [ 0, %38 ]
  %40 = lshr i32 %20, 16
  %41 = trunc i32 %40 to i8
  %42 = xor i8 %39, 3
  %43 = zext i8 %42 to i64
  %44 = getelementptr inbounds [64 x i8], ptr %0, i64 0, i64 %43
  store i8 %41, ptr %44, align 1
  %45 = load i8, ptr %2, align 4
  %46 = add i8 %45, 1
  store i8 %46, ptr %2, align 4
  %47 = icmp eq i8 %46, 64
  br i1 %47, label %48, label %_ZN4llvm6SHA25612addUncountedEh.exit14

48:                                               ; preds = %_ZN4llvm6SHA25612addUncountedEh.exit13
  tail call void @_ZN4llvm6SHA2569hashBlockEv(ptr noundef nonnull align 4 dereferenceable(104) %0)
  store i8 0, ptr %2, align 4
  br label %_ZN4llvm6SHA25612addUncountedEh.exit14

_ZN4llvm6SHA25612addUncountedEh.exit14:           ; preds = %_ZN4llvm6SHA25612addUncountedEh.exit13, %48
  %49 = phi i8 [ %46, %_ZN4llvm6SHA25612addUncountedEh.exit13 ], [ 0, %48 ]
  %50 = lshr i32 %20, 8
  %51 = trunc i32 %50 to i8
  %52 = xor i8 %49, 3
  %53 = zext i8 %52 to i64
  %54 = getelementptr inbounds [64 x i8], ptr %0, i64 0, i64 %53
  store i8 %51, ptr %54, align 1
  %55 = load i8, ptr %2, align 4
  %56 = add i8 %55, 1
  store i8 %56, ptr %2, align 4
  %57 = icmp eq i8 %56, 64
  br i1 %57, label %58, label %_ZN4llvm6SHA25612addUncountedEh.exit15

58:                                               ; preds = %_ZN4llvm6SHA25612addUncountedEh.exit14
  tail call void @_ZN4llvm6SHA2569hashBlockEv(ptr noundef nonnull align 4 dereferenceable(104) %0)
  store i8 0, ptr %2, align 4
  br label %_ZN4llvm6SHA25612addUncountedEh.exit15

_ZN4llvm6SHA25612addUncountedEh.exit15:           ; preds = %_ZN4llvm6SHA25612addUncountedEh.exit14, %58
  %59 = phi i8 [ %56, %_ZN4llvm6SHA25612addUncountedEh.exit14 ], [ 0, %58 ]
  %60 = trunc i32 %20 to i8
  %61 = xor i8 %59, 3
  %62 = zext i8 %61 to i64
  %63 = getelementptr inbounds [64 x i8], ptr %0, i64 0, i64 %62
  store i8 %60, ptr %63, align 1
  %64 = load i8, ptr %2, align 4
  %65 = add i8 %64, 1
  store i8 %65, ptr %2, align 4
  %66 = icmp eq i8 %65, 64
  br i1 %66, label %67, label %_ZN4llvm6SHA25612addUncountedEh.exit16

67:                                               ; preds = %_ZN4llvm6SHA25612addUncountedEh.exit15
  tail call void @_ZN4llvm6SHA2569hashBlockEv(ptr noundef nonnull align 4 dereferenceable(104) %0)
  store i8 0, ptr %2, align 4
  br label %_ZN4llvm6SHA25612addUncountedEh.exit16

_ZN4llvm6SHA25612addUncountedEh.exit16:           ; preds = %_ZN4llvm6SHA25612addUncountedEh.exit15, %67
  ret void
}